target datalayout = "e-m:e-p270:32:32-p271:32:32-p272:64:64-i64:64-i128:128-f80:128-n8:16:32:64-S128"
target triple = "x86_64-pc-linux-gnu"

%struct.repository = type { ptr, ptr, ptr, ptr, ptr, %struct.strmap, %struct.strmap, %struct.repo_path_cache, ptr, ptr, ptr, ptr, %struct.repo_settings, ptr, ptr, ptr, ptr, ptr, ptr, i32, i32, i32, ptr, ptr, i32, i32, i8 }
%struct.strmap = type { %struct.hashmap, ptr, i8 }
%struct.hashmap = type { ptr, ptr, ptr, i32, i32, i32, i32, i8 }
%struct.repo_path_cache = type { ptr, ptr, ptr, ptr, ptr, ptr, ptr }
%struct.repo_settings = type { i32, i32, i32, i32, i32, i32, i32, i32, i32, i32, i32, i32, ptr, i32, i32, i32, i32, i32, i32, i32, i64, i64, i64 }
%struct.attr_check = type { i32, i32, ptr, i32, ptr, ptr }
%struct.attr_check_item = type { ptr, ptr }

@the_repository = external global ptr, align 8
@stdout = external global ptr, align 8
@nul_term_line = internal global i32 0, align 4
@git_attr__true = external constant [0 x i8], align 1
@.str.26 = private unnamed_addr constant [4 x i8] c"set\00", align 1
@git_attr__false = external constant [0 x i8], align 1
@.str.27 = private unnamed_addr constant [6 x i8] c"unset\00", align 1
@.str.28 = private unnamed_addr constant [12 x i8] c"unspecified\00", align 1
@.str.29 = private unnamed_addr constant [13 x i8] c"%s%c%s%c%s%c\00", align 1
@.str.30 = private unnamed_addr constant [10 x i8] c": %s: %s\0A\00", align 1

; Function Attrs: nounwind uwtable
define internal void @output_attr(ptr noundef %0, ptr noundef %1) #0 {
  %3 = alloca ptr, align 8
  %4 = alloca ptr, align 8
  %5 = alloca i32, align 4
  %6 = alloca i32, align 4
  %7 = alloca ptr, align 8
  store ptr %0, ptr %3, align 8, !tbaa !36
  store ptr %1, ptr %4, align 8, !tbaa !11
  call void @llvm.lifetime.start.p0(i64 4, ptr %5) #9
  call void @llvm.lifetime.start.p0(i64 4, ptr %6) #9
  %8 = load ptr, ptr %3, align 8, !tbaa !36
  %9 = getelementptr inbounds nuw %struct.attr_check, ptr %8, i32 0, i32 0
  %10 = load i32, ptr %9, align 8, !tbaa !55
  store i32 %10, ptr %6, align 4, !tbaa !4
  store i32 0, ptr %5, align 4, !tbaa !4
  br label %11

11:                                               ; preds = %69, %2
  %12 = load i32, ptr %5, align 4, !tbaa !4
  %13 = load i32, ptr %6, align 4, !tbaa !4
  %14 = icmp slt i32 %12, %13
  br i1 %14, label %15, label %72

15:                                               ; preds = %11
  call void @llvm.lifetime.start.p0(i64 8, ptr %7) #9
  %16 = load ptr, ptr %3, align 8, !tbaa !36
  %17 = getelementptr inbounds nuw %struct.attr_check, ptr %16, i32 0, i32 2
  %18 = load ptr, ptr %17, align 8, !tbaa !60
  %19 = load i32, ptr %5, align 4, !tbaa !4
  %20 = sext i32 %19 to i64
  %21 = getelementptr inbounds %struct.attr_check_item, ptr %18, i64 %20
  %22 = getelementptr inbounds nuw %struct.attr_check_item, ptr %21, i32 0, i32 1
  %23 = load ptr, ptr %22, align 8, !tbaa !61
  store ptr %23, ptr %7, align 8, !tbaa !11
  %24 = load ptr, ptr %7, align 8, !tbaa !11
  %25 = icmp eq ptr %24, @git_attr__true
  br i1 %25, label %26, label %27

26:                                               ; preds = %15
  store ptr @.str.26, ptr %7, align 8, !tbaa !11
  br label %37

27:                                               ; preds = %15
  %28 = load ptr, ptr %7, align 8, !tbaa !11
  %29 = icmp eq ptr %28, @git_attr__false
  br i1 %29, label %30, label %31

30:                                               ; preds = %27
  store ptr @.str.27, ptr %7, align 8, !tbaa !11
  br label %36

31:                                               ; preds = %27
  %32 = load ptr, ptr %7, align 8, !tbaa !11
  %33 = icmp eq ptr %32, null
  br i1 %33, label %34, label %35

34:                                               ; preds = %31
  store ptr @.str.28, ptr %7, align 8, !tbaa !11
  br label %35

35:                                               ; preds = %34, %31
  br label %36

36:                                               ; preds = %35, %30
  br label %37

37:                                               ; preds = %36, %26
  %38 = load i32, ptr @nul_term_line, align 4, !tbaa !4
  %39 = icmp ne i32 %38, 0
  br i1 %39, label %40, label %53

40:                                               ; preds = %37
  %41 = load ptr, ptr %4, align 8, !tbaa !11
  %42 = load ptr, ptr %3, align 8, !tbaa !36
  %43 = getelementptr inbounds nuw %struct.attr_check, ptr %42, i32 0, i32 2
  %44 = load ptr, ptr %43, align 8, !tbaa !60
  %45 = load i32, ptr %5, align 4, !tbaa !4
  %46 = sext i32 %45 to i64
  %47 = getelementptr inbounds %struct.attr_check_item, ptr %44, i64 %46
  %48 = getelementptr inbounds nuw %struct.attr_check_item, ptr %47, i32 0, i32 0
  %49 = load ptr, ptr %48, align 8, !tbaa !63
  %50 = call ptr @git_attr_name(ptr noundef %49)
  %51 = load ptr, ptr %7, align 8, !tbaa !11
  %52 = call i32 (ptr, ...) @printf(ptr noundef @.str.29, ptr noundef %41, i32 noundef 0, ptr noundef %50, i32 noundef 0, ptr noundef %51, i32 noundef 0)
  br label %68

53:                                               ; preds = %37
  %54 = load ptr, ptr %4, align 8, !tbaa !11
  %55 = load ptr, ptr @stdout, align 8, !tbaa !42
  %56 = call i64 @quote_c_style(ptr noundef %54, ptr noundef null, ptr noundef %55, i32 noundef 0)
  %57 = load ptr, ptr %3, align 8, !tbaa !36
  %58 = getelementptr inbounds nuw %struct.attr_check, ptr %57, i32 0, i32 2
  %59 = load ptr, ptr %58, align 8, !tbaa !60
  %60 = load i32, ptr %5, align 4, !tbaa !4
  %61 = sext i32 %60 to i64
  %62 = getelementptr inbounds %struct.attr_check_item, ptr %59, i64 %61
  %63 = getelementptr inbounds nuw %struct.attr_check_item, ptr %62, i32 0, i32 0
  %64 = load ptr, ptr %63, align 8, !tbaa !63
  %65 = call ptr @git_attr_name(ptr noundef %64)
  %66 = load ptr, ptr %7, align 8, !tbaa !11
  %67 = call i32 (ptr, ...) @printf(ptr noundef @.str.30, ptr noundef %65, ptr noundef %66)
  br label %68

68:                                               ; preds = %53, %40
  call void @llvm.lifetime.end.p0(i64 8, ptr %7) #9
  br label %69

69:                                               ; preds = %68
  %70 = load i32, ptr %5, align 4, !tbaa !4
  %71 = add nsw i32 %70, 1
  store i32 %71, ptr %5, align 4, !tbaa !4
  br label %11, !llvm.loop !64

72:                                               ; preds = %11
  call void @llvm.lifetime.end.p0(i64 4, ptr %6) #9
  call void @llvm.lifetime.end.p0(i64 4, ptr %5) #9
  ret void
}

; Function Attrs: nounwind uwtable
define internal void @check_attr(ptr noundef %0, ptr noundef %1, i32 noundef %2, ptr noundef %3) #0 {
  %5 = alloca ptr, align 8
  %6 = alloca ptr, align 8
  %7 = alloca i32, align 4
  %8 = alloca ptr, align 8
  %9 = alloca ptr, align 8
  store ptr %0, ptr %5, align 8, !tbaa !11
  store ptr %1, ptr %6, align 8, !tbaa !36
  store i32 %2, ptr %7, align 4, !tbaa !4
  store ptr %3, ptr %8, align 8, !tbaa !11
  call void @llvm.lifetime.start.p0(i64 8, ptr %9) #9
  %10 = load ptr, ptr %5, align 8, !tbaa !11
  %11 = load ptr, ptr %5, align 8, !tbaa !11
  %12 = icmp ne ptr %11, null
  br i1 %12, label %13, label %16

13:                                               ; preds = %4
  %14 = load ptr, ptr %5, align 8, !tbaa !11
  %15 = call i64 @strlen(ptr noundef %14) #11
  br label %17

16:                                               ; preds = %4
  br label %17

17:                                               ; preds = %16, %13
  %18 = phi i64 [ %15, %13 ], [ 0, %16 ]
  %19 = trunc i64 %18 to i32
  %20 = load ptr, ptr %8, align 8, !tbaa !11
  %21 = call ptr @prefix_path(ptr noundef %10, i32 noundef %19, ptr noundef %20)
  store ptr %21, ptr %9, align 8, !tbaa !11
  %22 = load i32, ptr %7, align 4, !tbaa !4
  %23 = icmp ne i32 %22, 0
  br i1 %23, label %24, label %30

24:                                               ; preds = %17
  %25 = load ptr, ptr @the_repository, align 8, !tbaa !13
  %26 = getelementptr inbounds nuw %struct.repository, ptr %25, i32 0, i32 15
  %27 = load ptr, ptr %26, align 8, !tbaa !49
  %28 = load ptr, ptr %9, align 8, !tbaa !11
  %29 = load ptr, ptr %6, align 8, !tbaa !36
  call void @git_all_attrs(ptr noundef %27, ptr noundef %28, ptr noundef %29)
  br label %36

30:                                               ; preds = %17
  %31 = load ptr, ptr @the_repository, align 8, !tbaa !13
  %32 = getelementptr inbounds nuw %struct.repository, ptr %31, i32 0, i32 15
  %33 = load ptr, ptr %32, align 8, !tbaa !49
  %34 = load ptr, ptr %9, align 8, !tbaa !11
  %35 = load ptr, ptr %6, align 8, !tbaa !36
  call void @git_check_attr(ptr noundef %33, ptr noundef %34, ptr noundef %35)
  br label %36

36:                                               ; preds = %30, %24
  %37 = load ptr, ptr %6, align 8, !tbaa !36
  %38 = load ptr, ptr %8, align 8, !tbaa !11
  call void @output_attr(ptr noundef %37, ptr noundef %38)
  %39 = load ptr, ptr %9, align 8, !tbaa !11
  call void @free(ptr noundef %39) #9
  call void @llvm.lifetime.end.p0(i64 8, ptr %9) #9
  ret void
}