; Function Attrs: nounwind uwtable
define internal fastcc void @check_attr(ptr noundef %0, ptr noundef %1, i32 noundef %2, ptr noundef %3) unnamed_addr #0 {
  %.not = icmp eq ptr %0, null
  br i1 %.not, label %8, label %5

5:                                                ; preds = %4
  %6 = tail call i64 @strlen(ptr noundef nonnull dereferenceable(1) %0) #12
  %7 = trunc i64 %6 to i32
  br label %8

8:                                                ; preds = %4, %5
  %9 = phi i32 [ %7, %5 ], [ 0, %4 ]
  %10 = tail call ptr @prefix_path(ptr noundef %0, i32 noundef %9, ptr noundef %3) #9
  %.not11 = icmp eq i32 %2, 0
  %11 = load ptr, ptr @the_repository, align 8, !tbaa !4
  %12 = getelementptr inbounds nuw i8, ptr %11, i64 384
  %13 = load ptr, ptr %12, align 8, !tbaa !44
  br i1 %.not11, label %15, label %14

14:                                               ; preds = %8
  tail call void @git_all_attrs(ptr noundef %13, ptr noundef %10, ptr noundef %1) #9
  br label %16

15:                                               ; preds = %8
  tail call void @git_check_attr(ptr noundef %13, ptr noundef %10, ptr noundef %1) #9
  br label %16

16:                                               ; preds = %15, %14
  %17 = load i32, ptr %1, align 8, !tbaa !45
  %18 = icmp sgt i32 %17, 0
  br i1 %18, label %.lr.ph.i, label %output_attr.exit

.lr.ph.i:                                         ; preds = %16
  %19 = getelementptr inbounds nuw i8, ptr %1, i64 8
  %wide.trip.count.i = zext nneg i32 %17 to i64
  br label %20

20:                                               ; preds = %44, %.lr.ph.i
  %indvars.iv.i = phi i64 [ 0, %.lr.ph.i ], [ %indvars.iv.next.i, %44 ]
  %21 = load ptr, ptr %19, align 8, !tbaa !50
  %22 = getelementptr inbounds nuw %struct.attr_check_item, ptr %21, i64 %indvars.iv.i, i32 1
  %23 = load ptr, ptr %22, align 8, !tbaa !51
  %24 = icmp eq ptr %23, @git_attr__true
  br i1 %24, label %29, label %25

25:                                               ; preds = %20
  %26 = icmp eq ptr %23, @git_attr__false
  br i1 %26, label %29, label %27

27:                                               ; preds = %25
  %28 = icmp eq ptr %23, null
  %spec.store.select.i = select i1 %28, ptr @.str.28, ptr %23
  br label %29

29:                                               ; preds = %27, %25, %20
  %.0.i = phi ptr [ %spec.store.select.i, %27 ], [ @.str.26, %20 ], [ @.str.27, %25 ]
  %30 = load i32, ptr @nul_term_line, align 4, !tbaa !30
  %.not.i = icmp eq i32 %30, 0
  br i1 %.not.i, label %36, label %31

31:                                               ; preds = %29
  %32 = getelementptr inbounds nuw %struct.attr_check_item, ptr %21, i64 %indvars.iv.i
  %33 = load ptr, ptr %32, align 8, !tbaa !54
  %34 = tail call ptr @git_attr_name(ptr noundef %33) #9
  %35 = tail call i32 (ptr, ...) @printf(ptr noundef nonnull dereferenceable(1) @.str.29, ptr noundef %3, i32 noundef 0, ptr noundef %34, i32 noundef 0, ptr noundef nonnull %.0.i, i32 noundef 0)
  br label %44

36:                                               ; preds = %29
  %37 = load ptr, ptr @stdout, align 8, !tbaa !35
  %38 = tail call i64 @quote_c_style(ptr noundef %3, ptr noundef null, ptr noundef %37, i32 noundef 0) #9
  %39 = load ptr, ptr %19, align 8, !tbaa !50
  %40 = getelementptr inbounds nuw %struct.attr_check_item, ptr %39, i64 %indvars.iv.i
  %41 = load ptr, ptr %40, align 8, !tbaa !54
  %42 = tail call ptr @git_attr_name(ptr noundef %41) #9
  %43 = tail call i32 (ptr, ...) @printf(ptr noundef nonnull dereferenceable(1) @.str.30, ptr noundef %42, ptr noundef nonnull %.0.i)
  br label %44

44:                                               ; preds = %36, %31
  %indvars.iv.next.i = add nuw nsw i64 %indvars.iv.i, 1
  %exitcond.not.i = icmp eq i64 %indvars.iv.next.i, %wide.trip.count.i
  br i1 %exitcond.not.i, label %output_attr.exit, label %20, !llvm.loop !55

output_attr.exit:                                 ; preds = %44, %16
  tail call void @free(ptr noundef %10) #9
  ret void
}